target datalayout = "e-m:e-p270:32:32-p271:32:32-p272:64:64-i64:64-i128:128-f80:128-n8:16:32:64-S128"
target triple = "x86_64-pc-linux-gnu"

%struct.CType = type { i32, i32, i16, i16, %struct.GCRef }
%struct.GCRef = type { i64 }
%struct.CTState = type { ptr, i32, i32, ptr, ptr, ptr, %struct.CCallback, [128 x i16] }
%struct.CCallback = type { [8 x %union.FPRCBArg], [8 x i64], ptr, ptr, ptr, i32, i32, i32 }
%union.FPRCBArg = type { double }

; Function Attrs: alwaysinline nounwind uwtable
define internal i32 @ctype_check(ptr noundef %0, i32 noundef %1) #2 {
  %3 = alloca ptr, align 8
  %4 = alloca i32, align 4
  store ptr %0, ptr %3, align 8, !tbaa !4
  store i32 %1, ptr %4, align 4, !tbaa !11
  %5 = load i32, ptr %4, align 4, !tbaa !11
  ret i32 %5
}

; Function Attrs: alwaysinline nounwind uwtable
define internal ptr @ctype_get(ptr noundef %0, i32 noundef %1) #2 {
  %3 = alloca ptr, align 8
  %4 = alloca i32, align 4
  store ptr %0, ptr %3, align 8, !tbaa !4
  store i32 %1, ptr %4, align 4, !tbaa !11
  %5 = load ptr, ptr %3, align 8, !tbaa !4
  %6 = getelementptr inbounds nuw %struct.CTState, ptr %5, i32 0, i32 0
  %7 = load ptr, ptr %6, align 8, !tbaa !42
  %8 = load ptr, ptr %3, align 8, !tbaa !4
  %9 = load i32, ptr %4, align 4, !tbaa !11
  %10 = call i32 @ctype_check(ptr noundef %8, i32 noundef %9)
  %11 = zext i32 %10 to i64
  %12 = getelementptr inbounds nuw %struct.CType, ptr %7, i64 %11
  ret ptr %12
}

; Function Attrs: nounwind uwtable
define hidden void @lj_cconv_bf_tv(ptr noundef %0, ptr noundef %1, ptr noundef %2, ptr noundef %3) #0 {
  %5 = alloca ptr, align 8
  %6 = alloca ptr, align 8
  %7 = alloca ptr, align 8
  %8 = alloca ptr, align 8
  %9 = alloca i32, align 4
  %10 = alloca i32, align 4
  %11 = alloca i32, align 4
  %12 = alloca i32, align 4
  %13 = alloca i32, align 4
  %14 = alloca i8, align 1
  %15 = alloca i32, align 4
  store ptr %0, ptr %5, align 8, !tbaa !4
  store ptr %1, ptr %6, align 8, !tbaa !9
  store ptr %2, ptr %7, align 8, !tbaa !21
  store ptr %3, ptr %8, align 8, !tbaa !43
  call void @llvm.lifetime.start.p0(i64 4, ptr %9) #9
  %16 = load ptr, ptr %6, align 8, !tbaa !9
  %17 = getelementptr inbounds nuw %struct.CType, ptr %16, i32 0, i32 0
  %18 = load i32, ptr %17, align 8, !tbaa !13
  store i32 %18, ptr %9, align 4, !tbaa !11
  call void @llvm.lifetime.start.p0(i64 4, ptr %10) #9
  call void @llvm.lifetime.start.p0(i64 4, ptr %11) #9
  call void @llvm.lifetime.start.p0(i64 4, ptr %12) #9
  call void @llvm.lifetime.start.p0(i64 4, ptr %13) #9
  %19 = load i32, ptr %9, align 4, !tbaa !11
  %20 = and i32 %19, 134217728
  %21 = icmp ne i32 %20, 0
  br i1 %21, label %22, label %29

22:                                               ; preds = %4
  call void @llvm.lifetime.start.p0(i64 1, ptr %14) #9
  %23 = load ptr, ptr %5, align 8, !tbaa !4
  %24 = load ptr, ptr %5, align 8, !tbaa !4
  %25 = call ptr @ctype_get(ptr noundef %24, i32 noundef 3)
  %26 = load ptr, ptr %8, align 8, !tbaa !43
  call void @lj_cconv_ct_tv(ptr noundef %23, ptr noundef %25, ptr noundef %14, ptr noundef %26, i32 noundef 0)
  %27 = load i8, ptr %14, align 1, !tbaa !23
  %28 = zext i8 %27 to i32
  store i32 %28, ptr %12, align 4, !tbaa !11
  call void @llvm.lifetime.end.p0(i64 1, ptr %14) #9
  br label %39

29:                                               ; preds = %4
  call void @llvm.lifetime.start.p0(i64 4, ptr %15) #9
  %30 = load i32, ptr %9, align 4, !tbaa !11
  %31 = and i32 %30, 8388608
  %32 = icmp ne i32 %31, 0
  %33 = select i1 %32, i32 10, i32 9
  store i32 %33, ptr %15, align 4, !tbaa !11
  %34 = load ptr, ptr %5, align 8, !tbaa !4
  %35 = load ptr, ptr %5, align 8, !tbaa !4
  %36 = load i32, ptr %15, align 4, !tbaa !11
  %37 = call ptr @ctype_get(ptr noundef %35, i32 noundef %36)
  %38 = load ptr, ptr %8, align 8, !tbaa !43
  call void @lj_cconv_ct_tv(ptr noundef %34, ptr noundef %37, ptr noundef %12, ptr noundef %38, i32 noundef 0)
  call void @llvm.lifetime.end.p0(i64 4, ptr %15) #9
  br label %39

39:                                               ; preds = %29, %22
  %40 = load i32, ptr %9, align 4, !tbaa !11
  %41 = lshr i32 %40, 0
  %42 = and i32 %41, 127
  store i32 %42, ptr %10, align 4, !tbaa !11
  %43 = load i32, ptr %9, align 4, !tbaa !11
  %44 = lshr i32 %43, 8
  %45 = and i32 %44, 127
  store i32 %45, ptr %11, align 4, !tbaa !11
  %46 = load i32, ptr %10, align 4, !tbaa !11
  %47 = load i32, ptr %11, align 4, !tbaa !11
  %48 = add i32 %46, %47
  %49 = load i32, ptr %9, align 4, !tbaa !11
  %50 = lshr i32 %49, 16
  %51 = and i32 %50, 127
  %52 = mul i32 8, %51
  %53 = icmp ugt i32 %48, %52
  br i1 %53, label %54, label %58

54:                                               ; preds = %39
  %55 = load ptr, ptr %5, align 8, !tbaa !4
  %56 = getelementptr inbounds nuw %struct.CTState, ptr %55, i32 0, i32 3
  %57 = load ptr, ptr %56, align 8, !tbaa !34
  call void @lj_err_caller(ptr noundef %57, i32 noundef 3700) #10
  unreachable

58:                                               ; preds = %39
  %59 = load i32, ptr %11, align 4, !tbaa !11
  %60 = shl i32 1, %59
  %61 = sub i32 %60, 1
  %62 = load i32, ptr %10, align 4, !tbaa !11
  %63 = shl i32 %61, %62
  store i32 %63, ptr %13, align 4, !tbaa !11
  %64 = load i32, ptr %12, align 4, !tbaa !11
  %65 = load i32, ptr %10, align 4, !tbaa !11
  %66 = shl i32 %64, %65
  %67 = load i32, ptr %13, align 4, !tbaa !11
  %68 = and i32 %66, %67
  store i32 %68, ptr %12, align 4, !tbaa !11
  %69 = load i32, ptr %9, align 4, !tbaa !11
  %70 = lshr i32 %69, 16
  %71 = and i32 %70, 127
  switch i32 %71, label %107 [
    i32 4, label %72
    i32 2, label %81
    i32 1, label %94
  ]

72:                                               ; preds = %58
  %73 = load ptr, ptr %7, align 8, !tbaa !21
  %74 = load i32, ptr %73, align 4, !tbaa !11
  %75 = load i32, ptr %13, align 4, !tbaa !11
  %76 = xor i32 %75, -1
  %77 = and i32 %74, %76
  %78 = load i32, ptr %12, align 4, !tbaa !11
  %79 = or i32 %77, %78
  %80 = load ptr, ptr %7, align 8, !tbaa !21
  store i32 %79, ptr %80, align 4, !tbaa !11
  br label %108

81:                                               ; preds = %58
  %82 = load ptr, ptr %7, align 8, !tbaa !21
  %83 = load i16, ptr %82, align 2, !tbaa !30
  %84 = zext i16 %83 to i32
  %85 = load i32, ptr %13, align 4, !tbaa !11
  %86 = xor i32 %85, -1
  %87 = and i32 %84, %86
  %88 = load i32, ptr %12, align 4, !tbaa !11
  %89 = trunc i32 %88 to i16
  %90 = zext i16 %89 to i32
  %91 = or i32 %87, %90
  %92 = trunc i32 %91 to i16
  %93 = load ptr, ptr %7, align 8, !tbaa !21
  store i16 %92, ptr %93, align 2, !tbaa !30
  br label %108

94:                                               ; preds = %58
  %95 = load ptr, ptr %7, align 8, !tbaa !21
  %96 = load i8, ptr %95, align 1, !tbaa !23
  %97 = zext i8 %96 to i32
  %98 = load i32, ptr %13, align 4, !tbaa !11
  %99 = xor i32 %98, -1
  %100 = and i32 %97, %99
  %101 = load i32, ptr %12, align 4, !tbaa !11
  %102 = trunc i32 %101 to i8
  %103 = zext i8 %102 to i32
  %104 = or i32 %100, %103
  %105 = trunc i32 %104 to i8
  %106 = load ptr, ptr %7, align 8, !tbaa !21
  store i8 %105, ptr %106, align 1, !tbaa !23
  br label %108

107:                                              ; preds = %58
  br label %108

108:                                              ; preds = %107, %94, %81, %72
  call void @llvm.lifetime.end.p0(i64 4, ptr %13) #9
  call void @llvm.lifetime.end.p0(i64 4, ptr %12) #9
  call void @llvm.lifetime.end.p0(i64 4, ptr %11) #9
  call void @llvm.lifetime.end.p0(i64 4, ptr %10) #9
  call void @llvm.lifetime.end.p0(i64 4, ptr %9) #9
  ret void
}