; Function Attrs: nounwind uwtable
define hidden void @lj_cconv_bf_tv(ptr noundef %0, ptr noundef readonly captures(none) %1, ptr noundef captures(none) %2, ptr noundef %3) local_unnamed_addr #2 {
  %5 = alloca i32, align 4
  %6 = alloca i8, align 1
  %7 = load i32, ptr %1, align 8, !tbaa !17
  call void @llvm.lifetime.start.p0(i64 4, ptr nonnull %5) #9
  %8 = and i32 %7, 134217728
  %.not = icmp eq i32 %8, 0
  br i1 %.not, label %14, label %9

9:                                                ; preds = %4
  call void @llvm.lifetime.start.p0(i64 1, ptr nonnull %6) #9
  %10 = load ptr, ptr %0, align 8, !tbaa !4
  %11 = getelementptr inbounds nuw i8, ptr %10, i64 72
  call void @lj_cconv_ct_tv(ptr noundef nonnull %0, ptr noundef nonnull %11, ptr noundef nonnull %6, ptr noundef %3, i32 noundef 0)
  %12 = load i8, ptr %6, align 1, !tbaa !23
  %13 = zext i8 %12 to i32
  store i32 %13, ptr %5, align 4, !tbaa !24
  call void @llvm.lifetime.end.p0(i64 1, ptr nonnull %6) #9
  br label %19

14:                                               ; preds = %4
  %15 = and i32 %7, 8388608
  %.not29 = icmp eq i32 %15, 0
  %16 = select i1 %.not29, i64 9, i64 10
  %17 = load ptr, ptr %0, align 8, !tbaa !4
  %18 = getelementptr inbounds nuw %struct.CType, ptr %17, i64 %16
  call void @lj_cconv_ct_tv(ptr noundef nonnull %0, ptr noundef nonnull %18, ptr noundef nonnull %5, ptr noundef %3, i32 noundef 0)
  br label %19

19:                                               ; preds = %14, %9
  %20 = and i32 %7, 127
  %21 = lshr i32 %7, 8
  %22 = and i32 %21, 127
  %23 = add nuw nsw i32 %22, %20
  %24 = lshr i32 %7, 16
  %25 = and i32 %24, 127
  %26 = shl nuw nsw i32 %25, 3
  %27 = icmp samesign ugt i32 %23, %26
  br i1 %27, label %28, label %31

28:                                               ; preds = %19
  %29 = getelementptr inbounds nuw i8, ptr %0, i64 16
  %30 = load ptr, ptr %29, align 8, !tbaa !35
  call void @lj_err_caller(ptr noundef %30, i32 noundef 3700) #11
  unreachable

31:                                               ; preds = %19
  %notmask = shl nsw i32 -1, %22
  %32 = xor i32 %notmask, -1
  %33 = shl i32 %32, %20
  %34 = load i32, ptr %5, align 4, !tbaa !24
  %35 = and i32 %34, %32
  %36 = shl i32 %35, %20
  switch i32 %25, label %56 [
    i32 4, label %37
    i32 2, label %42
    i32 1, label %49
  ]

37:                                               ; preds = %31
  %38 = load i32, ptr %2, align 4, !tbaa !24
  %39 = xor i32 %33, -1
  %40 = and i32 %38, %39
  %41 = or i32 %40, %36
  store i32 %41, ptr %2, align 4, !tbaa !24
  br label %56

42:                                               ; preds = %31
  %43 = load i16, ptr %2, align 2, !tbaa !31
  %44 = zext i16 %43 to i32
  %45 = xor i32 %33, -1
  %46 = and i32 %44, %45
  %47 = or i32 %46, %36
  %48 = trunc i32 %47 to i16
  store i16 %48, ptr %2, align 2, !tbaa !31
  br label %56

49:                                               ; preds = %31
  %50 = load i8, ptr %2, align 1, !tbaa !23
  %51 = zext i8 %50 to i32
  %52 = xor i32 %33, -1
  %53 = and i32 %51, %52
  %54 = or i32 %53, %36
  %55 = trunc i32 %54 to i8
  store i8 %55, ptr %2, align 1, !tbaa !23
  br label %56

56:                                               ; preds = %31, %49, %42, %37
  call void @llvm.lifetime.end.p0(i64 4, ptr nonnull %5) #9
  ret void
}